target datalayout = "e-m:e-p270:32:32-p271:32:32-p272:64:64-i64:64-i128:128-f80:128-n8:16:32:64-S128"
target triple = "x86_64-unknown-linux-gnu"

%"class.icu_75::UnicodeString" = type { %"class.icu_75::Replaceable", %"union.icu_75::UnicodeString::StackBufferOrFields" }
%"class.icu_75::Replaceable" = type { %"class.icu_75::UObject" }
%"class.icu_75::UObject" = type { ptr }
%"union.icu_75::UnicodeString::StackBufferOrFields" = type { %struct.anon.0, [32 x i8] }
%struct.anon.0 = type { i16, i32, i32, ptr }
%"class.icu_75::EscapeTransliterator" = type { %"class.icu_75::Transliterator.base", %"class.icu_75::UnicodeString", %"class.icu_75::UnicodeString", i32, i32, i8, ptr }
%"class.icu_75::Transliterator.base" = type <{ %"class.icu_75::UObject", %"class.icu_75::UnicodeString", ptr, i32 }>
%struct.anon = type { i16, [27 x i16] }

@_ZTVN6icu_7513UnicodeStringE = external unnamed_addr constant { [13 x ptr] }, align 8
@_ZTVN6icu_7511ReplaceableE = external unnamed_addr constant { [13 x ptr] }, align 8
@_ZTVN6icu_757UObjectE = external unnamed_addr constant { [5 x ptr] }, align 8

; Function Attrs: mustprogress nounwind uwtable
define linkonce_odr void @_ZN6icu_757UObjectC2Ev(ptr noundef nonnull align 8 dereferenceable(8) %this) unnamed_addr #0 comdat align 2 {
entry:
  %this.addr = alloca ptr, align 8
  store ptr %this, ptr %this.addr, align 8
  %this1 = load ptr, ptr %this.addr, align 8
  store ptr getelementptr inbounds ({ [5 x ptr] }, ptr @_ZTVN6icu_757UObjectE, i32 0, i32 0, i32 2), ptr %this1, align 8
  ret void
}

; Function Attrs: mustprogress nounwind uwtable
define linkonce_odr void @_ZN6icu_7511ReplaceableC2Ev(ptr noundef nonnull align 8 dereferenceable(8) %this) unnamed_addr #0 comdat align 2 {
entry:
  %this.addr = alloca ptr, align 8
  store ptr %this, ptr %this.addr, align 8
  %this1 = load ptr, ptr %this.addr, align 8
  call void @_ZN6icu_757UObjectC2Ev(ptr noundef nonnull align 8 dereferenceable(8) %this1) #7
  store ptr getelementptr inbounds ({ [13 x ptr] }, ptr @_ZTVN6icu_7511ReplaceableE, i32 0, i32 0, i32 2), ptr %this1, align 8
  ret void
}

; Function Attrs: mustprogress uwtable
define linkonce_odr void @_ZN6icu_7513UnicodeStringC2Ev(ptr noundef nonnull align 8 dereferenceable(64) %this) unnamed_addr #1 comdat align 2 {
entry:
  %this.addr = alloca ptr, align 8
  store ptr %this, ptr %this.addr, align 8
  %this1 = load ptr, ptr %this.addr, align 8
  call void @_ZN6icu_7511ReplaceableC2Ev(ptr noundef nonnull align 8 dereferenceable(8) %this1)
  store ptr getelementptr inbounds ({ [13 x ptr] }, ptr @_ZTVN6icu_7513UnicodeStringE, i32 0, i32 0, i32 2), ptr %this1, align 8
  %fUnion2 = getelementptr inbounds %"class.icu_75::UnicodeString", ptr %this1, i32 0, i32 1
  %fLengthAndFlags = getelementptr inbounds %struct.anon, ptr %fUnion2, i32 0, i32 0
  store i16 2, ptr %fLengthAndFlags, align 8
  ret void
}

; Function Attrs: mustprogress uwtable
define void @_ZN6icu_7520EscapeTransliteratorC2ERKNS_13UnicodeStringES3_S3_iiaPS0_(ptr noundef nonnull align 8 dereferenceable(240) %this, ptr noundef nonnull align 8 dereferenceable(64) %newID, ptr noundef nonnull align 8 dereferenceable(64) %_prefix, ptr noundef nonnull align 8 dereferenceable(64) %_suffix, i32 noundef %_radix, i32 noundef %_minDigits, i8 noundef signext %_grokSupplementals, ptr noundef %adoptedSupplementalHandler) unnamed_addr #1 align 2 personality ptr @__gxx_personality_v0 {
entry:
  %this.addr = alloca ptr, align 8
  %newID.addr = alloca ptr, align 8
  %_prefix.addr = alloca ptr, align 8
  %_suffix.addr = alloca ptr, align 8
  %_radix.addr = alloca i32, align 4
  %_minDigits.addr = alloca i32, align 4
  %_grokSupplementals.addr = alloca i8, align 1
  %adoptedSupplementalHandler.addr = alloca ptr, align 8
  %exn.slot = alloca ptr, align 8
  %ehselector.slot = alloca i32, align 4
  store ptr %this, ptr %this.addr, align 8
  store ptr %newID, ptr %newID.addr, align 8
  store ptr %_prefix, ptr %_prefix.addr, align 8
  store ptr %_suffix, ptr %_suffix.addr, align 8
  store i32 %_radix, ptr %_radix.addr, align 4
  store i32 %_minDigits, ptr %_minDigits.addr, align 4
  store i8 %_grokSupplementals, ptr %_grokSupplementals.addr, align 1
  store ptr %adoptedSupplementalHandler, ptr %adoptedSupplementalHandler.addr, align 8
  %this1 = load ptr, ptr %this.addr, align 8
  %0 = load ptr, ptr %newID.addr, align 8
  call void @_ZN6icu_7514TransliteratorC2ERKNS_13UnicodeStringEPNS_13UnicodeFilterE(ptr noundef nonnull align 8 dereferenceable(84) %this1, ptr noundef nonnull align 8 dereferenceable(64) %0, ptr noundef null)
  store ptr getelementptr inbounds ({ [19 x ptr] }, ptr @_ZTVN6icu_7520EscapeTransliteratorE, i32 0, i32 0, i32 2), ptr %this1, align 8
  %prefix = getelementptr inbounds %"class.icu_75::EscapeTransliterator", ptr %this1, i32 0, i32 1
  invoke void @_ZN6icu_7513UnicodeStringC2Ev(ptr noundef nonnull align 8 dereferenceable(64) %prefix)
          to label %invoke.cont unwind label %lpad

invoke.cont:                                      ; preds = %entry
  %suffix = getelementptr inbounds %"class.icu_75::EscapeTransliterator", ptr %this1, i32 0, i32 2
  invoke void @_ZN6icu_7513UnicodeStringC2Ev(ptr noundef nonnull align 8 dereferenceable(64) %suffix)
          to label %invoke.cont3 unwind label %lpad2

invoke.cont3:                                     ; preds = %invoke.cont
  %1 = load ptr, ptr %_prefix.addr, align 8
  %prefix4 = getelementptr inbounds %"class.icu_75::EscapeTransliterator", ptr %this1, i32 0, i32 1
  %call = invoke noundef nonnull align 8 dereferenceable(64) ptr @_ZN6icu_7513UnicodeStringaSERKS0_(ptr noundef nonnull align 8 dereferenceable(64) %prefix4, ptr noundef nonnull align 8 dereferenceable(64) %1)
          to label %invoke.cont6 unwind label %lpad5

invoke.cont6:                                     ; preds = %invoke.cont3
  %2 = load ptr, ptr %_suffix.addr, align 8
  %suffix7 = getelementptr inbounds %"class.icu_75::EscapeTransliterator", ptr %this1, i32 0, i32 2
  %call9 = invoke noundef nonnull align 8 dereferenceable(64) ptr @_ZN6icu_7513UnicodeStringaSERKS0_(ptr noundef nonnull align 8 dereferenceable(64) %suffix7, ptr noundef nonnull align 8 dereferenceable(64) %2)
          to label %invoke.cont8 unwind label %lpad5

invoke.cont8:                                     ; preds = %invoke.cont6
  %3 = load i32, ptr %_radix.addr, align 4
  %radix = getelementptr inbounds %"class.icu_75::EscapeTransliterator", ptr %this1, i32 0, i32 3
  store i32 %3, ptr %radix, align 8
  %4 = load i32, ptr %_minDigits.addr, align 4
  %minDigits = getelementptr inbounds %"class.icu_75::EscapeTransliterator", ptr %this1, i32 0, i32 4
  store i32 %4, ptr %minDigits, align 4
  %5 = load i8, ptr %_grokSupplementals.addr, align 1
  %grokSupplementals = getelementptr inbounds %"class.icu_75::EscapeTransliterator", ptr %this1, i32 0, i32 5
  store i8 %5, ptr %grokSupplementals, align 8
  %6 = load ptr, ptr %adoptedSupplementalHandler.addr, align 8
  %supplementalHandler = getelementptr inbounds %"class.icu_75::EscapeTransliterator", ptr %this1, i32 0, i32 6
  store ptr %6, ptr %supplementalHandler, align 8
  ret void

lpad:                                             ; preds = %entry
  %7 = landingpad { ptr, i32 }
          cleanup
  %8 = extractvalue { ptr, i32 } %7, 0
  store ptr %8, ptr %exn.slot, align 8
  %9 = extractvalue { ptr, i32 } %7, 1
  store i32 %9, ptr %ehselector.slot, align 4
  br label %ehcleanup10

lpad2:                                            ; preds = %invoke.cont
  %10 = landingpad { ptr, i32 }
          cleanup
  %11 = extractvalue { ptr, i32 } %10, 0
  store ptr %11, ptr %exn.slot, align 8
  %12 = extractvalue { ptr, i32 } %10, 1
  store i32 %12, ptr %ehselector.slot, align 4
  br label %ehcleanup

lpad5:                                            ; preds = %invoke.cont6, %invoke.cont3
  %13 = landingpad { ptr, i32 }
          cleanup
  %14 = extractvalue { ptr, i32 } %13, 0
  store ptr %14, ptr %exn.slot, align 8
  %15 = extractvalue { ptr, i32 } %13, 1
  store i32 %15, ptr %ehselector.slot, align 4
  call void @_ZN6icu_7513UnicodeStringD1Ev(ptr noundef nonnull align 8 dereferenceable(64) %suffix) #7
  br label %ehcleanup

ehcleanup:                                        ; preds = %lpad5, %lpad2
  call void @_ZN6icu_7513UnicodeStringD1Ev(ptr noundef nonnull align 8 dereferenceable(64) %prefix) #7
  br label %ehcleanup10

ehcleanup10:                                      ; preds = %ehcleanup, %lpad
  call void @_ZN6icu_7514TransliteratorD2Ev(ptr noundef nonnull align 8 dereferenceable(84) %this1) #7
  br label %eh.resume

eh.resume:                                        ; preds = %ehcleanup10
  %exn = load ptr, ptr %exn.slot, align 8
  %sel = load i32, ptr %ehselector.slot, align 4
  %lpad.val = insertvalue { ptr, i32 } poison, ptr %exn, 0
  %lpad.val11 = insertvalue { ptr, i32 } %lpad.val, i32 %sel, 1
  resume { ptr, i32 } %lpad.val11
}