; Function Attrs: mustprogress uwtable
define void @_ZN6icu_7520EscapeTransliteratorC2ERKNS_13UnicodeStringES3_S3_iiaPS0_(ptr noundef nonnull align 8 dereferenceable(240) %this, ptr noundef nonnull align 8 dereferenceable(64) %newID, ptr noundef nonnull align 8 dereferenceable(64) %_prefix, ptr noundef nonnull align 8 dereferenceable(64) %_suffix, i32 noundef %_radix, i32 noundef %_minDigits, i8 noundef signext %_grokSupplementals, ptr noundef %adoptedSupplementalHandler) unnamed_addr #1 align 2 personality ptr @__gxx_personality_v0 {
invoke.cont3:
  tail call void @_ZN6icu_7514TransliteratorC2ERKNS_13UnicodeStringEPNS_13UnicodeFilterE(ptr noundef nonnull align 8 dereferenceable(84) %this, ptr noundef nonnull align 8 dereferenceable(64) %newID, ptr noundef null)
  store ptr getelementptr inbounds ({ [19 x ptr] }, ptr @_ZTVN6icu_7520EscapeTransliteratorE, i64 0, i32 0, i64 2), ptr %this, align 8
  %prefix = getelementptr inbounds i8, ptr %this, i64 88
  store ptr getelementptr inbounds ({ [13 x ptr] }, ptr @_ZTVN6icu_7513UnicodeStringE, i64 0, i32 0, i64 2), ptr %prefix, align 8
  %fUnion2.i = getelementptr inbounds i8, ptr %this, i64 96
  store i16 2, ptr %fUnion2.i, align 8
  %suffix = getelementptr inbounds i8, ptr %this, i64 152
  store ptr getelementptr inbounds ({ [13 x ptr] }, ptr @_ZTVN6icu_7513UnicodeStringE, i64 0, i32 0, i64 2), ptr %suffix, align 8
  %fUnion2.i3 = getelementptr inbounds i8, ptr %this, i64 160
  store i16 2, ptr %fUnion2.i3, align 8
  %call = invoke noundef nonnull align 8 dereferenceable(64) ptr @_ZN6icu_7513UnicodeStringaSERKS0_(ptr noundef nonnull align 8 dereferenceable(64) %prefix, ptr noundef nonnull align 8 dereferenceable(64) %_prefix)
          to label %invoke.cont6 unwind label %lpad5

invoke.cont6:                                     ; preds = %invoke.cont3
  %call9 = invoke noundef nonnull align 8 dereferenceable(64) ptr @_ZN6icu_7513UnicodeStringaSERKS0_(ptr noundef nonnull align 8 dereferenceable(64) %suffix, ptr noundef nonnull align 8 dereferenceable(64) %_suffix)
          to label %invoke.cont8 unwind label %lpad5

invoke.cont8:                                     ; preds = %invoke.cont6
  %radix = getelementptr inbounds i8, ptr %this, i64 216
  store i32 %_radix, ptr %radix, align 8
  %minDigits = getelementptr inbounds i8, ptr %this, i64 220
  store i32 %_minDigits, ptr %minDigits, align 4
  %grokSupplementals = getelementptr inbounds i8, ptr %this, i64 224
  store i8 %_grokSupplementals, ptr %grokSupplementals, align 8
  %supplementalHandler = getelementptr inbounds i8, ptr %this, i64 232
  store ptr %adoptedSupplementalHandler, ptr %supplementalHandler, align 8
  ret void

lpad5:                                            ; preds = %invoke.cont6, %invoke.cont3
  %0 = landingpad { ptr, i32 }
          cleanup
  tail call void @_ZN6icu_7513UnicodeStringD1Ev(ptr noundef nonnull align 8 dereferenceable(64) %suffix) #9
  tail call void @_ZN6icu_7513UnicodeStringD1Ev(ptr noundef nonnull align 8 dereferenceable(64) %prefix) #9
  tail call void @_ZN6icu_7514TransliteratorD2Ev(ptr noundef nonnull align 8 dereferenceable(84) %this) #9
  resume { ptr, i32 } %0
}